; Function Attrs: mustprogress optsize uwtable
define internal void @_ZZL30nanobind_init_test_classes_extRN8nanobind7module_EEN8PyAnimal8void_retEv(ptr noundef nonnull align 8 dereferenceable(64) %0) unnamed_addr #2 align 2 personality ptr @__gxx_personality_v0 {
  %2 = alloca %"class.nanobind::object", align 8
  %3 = alloca %"struct.nanobind::detail::ticket", align 8
  %4 = alloca %"class.nanobind::object", align 8
  %5 = alloca %"class.nanobind::detail::accessor.331", align 8
  call void @llvm.lifetime.start.p0(i64 32, ptr nonnull %3) #37
  %6 = getelementptr inbounds nuw i8, ptr %0, i64 8
  %7 = getelementptr inbounds nuw i8, ptr %3, i64 8
  call void @llvm.memset.p0.i64(ptr noundef nonnull align 8 dereferenceable(28) %3, i8 0, i64 28, i1 false)
  call void @_ZN8nanobind6detail16trampoline_enterEPPvmPKcbPNS0_6ticketE(ptr noundef nonnull align 8 dereferenceable(56) %6, i64 noundef 3, ptr noundef nonnull @.str.37, i1 noundef zeroext false, ptr noundef nonnull align 8 dereferenceable(28) %3) #38
  %8 = load ptr, ptr %7, align 8, !tbaa !20
  %.not = icmp eq ptr %8, null
  br i1 %.not, label %21, label %9

9:                                                ; preds = %1
  call void @llvm.lifetime.start.p0(i64 8, ptr nonnull %4) #37
  call void @llvm.lifetime.start.p0(i64 24, ptr nonnull %5) #37
  %10 = load ptr, ptr %6, align 8, !tbaa !129
  call void @llvm.experimental.noalias.scope.decl(metadata !287)
  call void @llvm.lifetime.start.p0(i64 8, ptr nonnull %2) #37, !noalias !287
  store ptr %8, ptr %2, align 8, !noalias !287
  %11 = load i64, ptr %8, align 8, !tbaa !86, !noalias !287
  %12 = add nsw i64 %11, 1
  store i64 %12, ptr %8, align 8, !tbaa !86, !noalias !287
  %13 = ptrtoint ptr %8 to i64
  store ptr %10, ptr %5, align 8, !tbaa !274, !alias.scope !287
  %14 = getelementptr inbounds nuw i8, ptr %5, i64 8
  store ptr null, ptr %14, align 8, !tbaa !276, !alias.scope !287
  %15 = getelementptr inbounds nuw i8, ptr %5, i64 16
  store i64 %13, ptr %15, align 8, !alias.scope !287
  %16 = call noundef nonnull align 8 dereferenceable(8) ptr @_ZNKR8nanobind6handle7dec_refEv(ptr noundef nonnull align 8 dereferenceable(8) %2) #35, !noalias !287
  call void @llvm.lifetime.end.p0(i64 8, ptr nonnull %2) #37, !noalias !287
  invoke void @_ZNK8nanobind6detail3apiINS0_8accessorINS0_8obj_attrEEEEclILNS_9rv_policyE1EJEEENS_6objectEDpOT0_(ptr dead_on_unwind nonnull writable sret(%"class.nanobind::object") align 8 %4, ptr noundef nonnull align 1 dereferenceable(1) %5) #38
          to label %17 unwind label %19

17:                                               ; preds = %9
  %18 = call noundef nonnull align 8 dereferenceable(8) ptr @_ZNKR8nanobind6handle7dec_refEv(ptr noundef nonnull align 8 dereferenceable(8) %4) #35
  call void @_ZN8nanobind6detail8accessorINS0_8obj_attrEED2Ev(ptr noundef nonnull align 8 dereferenceable(24) %5) #35
  call void @llvm.lifetime.end.p0(i64 24, ptr nonnull %5) #37
  call void @llvm.lifetime.end.p0(i64 8, ptr nonnull %4) #37
  br label %21

19:                                               ; preds = %9
  %20 = landingpad { ptr, i32 }
          cleanup
  call void @_ZN8nanobind6detail8accessorINS0_8obj_attrEED2Ev(ptr noundef nonnull align 8 dereferenceable(24) %5) #35
  call void @llvm.lifetime.end.p0(i64 24, ptr nonnull %5) #37
  call void @llvm.lifetime.end.p0(i64 8, ptr nonnull %4) #37
  call void @_ZN8nanobind6detail16trampoline_leaveEPNS0_6ticketE(ptr noundef nonnull align 8 dereferenceable(28) %3) #35
  call void @llvm.lifetime.end.p0(i64 32, ptr nonnull %3) #37
  resume { ptr, i32 } %20

21:                                               ; preds = %1, %17
  call void @_ZN8nanobind6detail16trampoline_leaveEPNS0_6ticketE(ptr noundef nonnull align 8 dereferenceable(28) %3) #35
  call void @llvm.lifetime.end.p0(i64 32, ptr nonnull %3) #37
  ret void
}